target datalayout = "e-m:e-p270:32:32-p271:32:32-p272:64:64-i64:64-i128:128-f80:128-n8:16:32:64-S128"
target triple = "x86_64-pc-linux-gnu"

; Function Attrs: mustprogress uwtable
define noundef i64 @_ZNK6icu_7720IslamicCivilCalendar9yearStartEiR10UErrorCode(ptr noundef nonnull align 8 dereferenceable(192) %0, i32 noundef %1, ptr noundef nonnull align 4 dereferenceable(4) %2) unnamed_addr #1 align 2 {
  %4 = alloca ptr, align 8
  %5 = alloca i32, align 4
  %6 = alloca ptr, align 8
  store ptr %0, ptr %4, align 8, !tbaa !43
  store i32 %1, ptr %5, align 4, !tbaa !17
  store ptr %2, ptr %6, align 8, !tbaa !12
  %7 = load i32, ptr %5, align 4, !tbaa !17
  %8 = sext i32 %7 to i64
  %9 = sub nsw i64 %8, 1
  %10 = mul nsw i64 354, %9
  %11 = load i32, ptr %5, align 4, !tbaa !17
  %12 = sext i32 %11 to i64
  %13 = mul nsw i64 11, %12
  %14 = add nsw i64 3, %13
  %15 = call noundef i64 @_ZN6icu_779ClockMath16floorDivideInt64Ell(i64 noundef %14, i64 noundef 30)
  %16 = add nsw i64 %10, %15
  ret i64 %16
}

; Function Attrs: mustprogress uwtable
define noundef i64 @_ZNK6icu_7723IslamicUmalquraCalendar9yearStartEiR10UErrorCode(ptr noundef nonnull align 8 dereferenceable(192) %0, i32 noundef %1, ptr noundef nonnull align 4 dereferenceable(4) %2) unnamed_addr #1 align 2 {
  %4 = alloca i64, align 8
  %5 = alloca ptr, align 8
  %6 = alloca i32, align 4
  %7 = alloca ptr, align 8
  %8 = alloca i64, align 8
  store ptr %0, ptr %5, align 8, !tbaa !47
  store i32 %1, ptr %6, align 4, !tbaa !17
  store ptr %2, ptr %7, align 8, !tbaa !12
  %9 = load ptr, ptr %5, align 8
  %10 = load i32, ptr %6, align 4, !tbaa !17
  %11 = icmp slt i32 %10, 1300
  br i1 %11, label %15, label %12

12:                                               ; preds = %3
  %13 = load i32, ptr %6, align 4, !tbaa !17
  %14 = icmp sgt i32 %13, 1600
  br i1 %14, label %15, label %19

15:                                               ; preds = %12, %3
  %16 = load i32, ptr %6, align 4, !tbaa !17
  %17 = load ptr, ptr %7, align 8, !tbaa !12
  %18 = call noundef i64 @_ZNK6icu_7720IslamicCivilCalendar9yearStartEiR10UErrorCode(ptr noundef nonnull align 8 dereferenceable(192) %9, i32 noundef %16, ptr noundef nonnull align 4 dereferenceable(4) %17)
  store i64 %18, ptr %4, align 8
  br label %34

19:                                               ; preds = %12
  %20 = load i32, ptr %6, align 4, !tbaa !17
  %21 = sub nsw i32 %20, 1300
  store i32 %21, ptr %6, align 4, !tbaa !17
  call void @llvm.lifetime.start.p0(i64 8, ptr %8) #8
  %22 = load i32, ptr %6, align 4, !tbaa !17
  %23 = sitofp i32 %22 to double
  %24 = call double @llvm.fmuladd.f64(double 0x407625E00D1B7176, double %23, double 0x411C188833333333)
  %25 = fadd double %24, 5.000000e-01
  %26 = fptosi double %25 to i64
  store i64 %26, ptr %8, align 8, !tbaa !21
  %27 = load i64, ptr %8, align 8, !tbaa !21
  %28 = load i32, ptr %6, align 4, !tbaa !17
  %29 = sext i32 %28 to i64
  %30 = getelementptr inbounds [301 x i8], ptr @_ZN6icu_7712_GLOBAL__N_126umAlQuraYrStartEstimateFixE, i64 0, i64 %29
  %31 = load i8, ptr %30, align 1, !tbaa !28
  %32 = sext i8 %31 to i64
  %33 = add nsw i64 %27, %32
  store i64 %33, ptr %4, align 8
  call void @llvm.lifetime.end.p0(i64 8, ptr %8) #8
  br label %34

34:                                               ; preds = %19, %15
  %35 = load i64, ptr %4, align 8
  ret i64 %35
}