; Function Attrs: mustprogress uwtable
define noundef i64 @_ZNK6icu_7723IslamicUmalquraCalendar9yearStartEiR10UErrorCode(ptr nonnull readnone align 8 captures(none) %0, i32 noundef %1, ptr nonnull readnone align 4 captures(none) %2) unnamed_addr #1 align 2 {
  %4 = add i32 %1, -1601
  %or.cond = icmp ult i32 %4, -301
  br i1 %or.cond, label %5, label %13

5:                                                ; preds = %3
  %6 = sext i32 %1 to i64
  %7 = mul nsw i64 %6, 354
  %8 = add nsw i64 %7, -354
  %9 = mul nsw i64 %6, 11
  %10 = add nsw i64 %9, 3
  %11 = tail call noundef i64 @_ZN6icu_779ClockMath16floorDivideInt64Ell(i64 noundef %10, i64 noundef 30)
  %12 = add nsw i64 %8, %11
  br label %24

13:                                               ; preds = %3
  %14 = add nsw i32 %1, -1300
  %15 = uitofp nneg i32 %14 to double
  %16 = tail call double @llvm.fmuladd.f64(double %15, double 0x407625E00D1B7176, double 0x411C188833333333)
  %17 = fadd double %16, 5.000000e-01
  %18 = fptosi double %17 to i64
  %19 = zext nneg i32 %14 to i64
  %20 = getelementptr inbounds nuw [301 x i8], ptr @_ZN6icu_7712_GLOBAL__N_126umAlQuraYrStartEstimateFixE, i64 0, i64 %19
  %21 = load i8, ptr %20, align 1, !tbaa !16
  %22 = sext i8 %21 to i64
  %23 = add nsw i64 %22, %18
  br label %24

24:                                               ; preds = %13, %5
  %.0 = phi i64 [ %12, %5 ], [ %23, %13 ]
  ret i64 %.0
}